; Function Attrs: mustprogress uwtable
define hidden void @_ZN4cvc58internal9TrustNode21mkReplaceGenTrustNodeERKS1_PNS0_14ProofGeneratorE(ptr dead_on_unwind noalias writable writeonly sret(%"class.cvc5::internal::TrustNode") align 8 captures(none) initializes((0, 4), (8, 16)) %0, ptr noundef nonnull readonly align 8 captures(none) dereferenceable(24) %1, ptr noundef %2) local_unnamed_addr #4 align 2 personality ptr @__gxx_personality_v0 {
  %4 = alloca %"class.cvc5::internal::NodeTemplate", align 8
  %5 = load i32, ptr %1, align 8, !tbaa !26
  tail call void @llvm.experimental.noalias.scope.decl(metadata !55)
  %6 = getelementptr inbounds nuw i8, ptr %1, i64 8
  %7 = load ptr, ptr %6, align 8, !tbaa !3, !noalias !55
  store ptr %7, ptr %4, align 8, !tbaa !3, !alias.scope !55
  %8 = load i64, ptr %7, align 8, !noalias !55
  %9 = lshr i64 %8, 40
  %10 = trunc nuw nsw i64 %9 to i32
  %11 = and i32 %10, 1048575
  %12 = icmp samesign ult i32 %11, 1048574
  br i1 %12, label %13, label %18, !prof !9

13:                                               ; preds = %3
  %14 = add i64 %8, 1099511627776
  %15 = and i64 %14, 1152920405095219200
  %16 = and i64 %8, -1152920405095219201
  %17 = or disjoint i64 %15, %16
  store i64 %17, ptr %7, align 8, !noalias !55
  br label %_ZNK4cvc58internal9TrustNode9getProvenEv.exit

18:                                               ; preds = %3
  %19 = icmp eq i32 %11, 1048574
  br i1 %19, label %20, label %_ZNK4cvc58internal9TrustNode9getProvenEv.exit, !prof !10

20:                                               ; preds = %18
  %21 = or i64 %8, 1152920405095219200
  store i64 %21, ptr %7, align 8, !noalias !55
  tail call void @_ZN4cvc58internal4expr9NodeValue20markRefCountMaxedOutEv(ptr noundef nonnull align 8 dereferenceable(24) %7), !noalias !55
  %.pre = load i64, ptr %7, align 8
  br label %_ZNK4cvc58internal9TrustNode9getProvenEv.exit

_ZNK4cvc58internal9TrustNode9getProvenEv.exit:    ; preds = %13, %18, %20
  %22 = phi i64 [ %17, %13 ], [ %8, %18 ], [ %.pre, %20 ]
  store i32 %5, ptr %0, align 8, !tbaa !26
  %23 = getelementptr inbounds nuw i8, ptr %0, i64 8
  store ptr %7, ptr %23, align 8, !tbaa !3
  %24 = lshr i64 %22, 40
  %25 = trunc nuw nsw i64 %24 to i32
  %26 = and i32 %25, 1048575
  %27 = icmp samesign ult i32 %26, 1048574
  br i1 %27, label %28, label %33, !prof !9

28:                                               ; preds = %_ZNK4cvc58internal9TrustNode9getProvenEv.exit
  %29 = add i64 %22, 1099511627776
  %30 = and i64 %29, 1152920405095219200
  %31 = and i64 %22, -1152920405095219201
  %32 = or disjoint i64 %30, %31
  store i64 %32, ptr %7, align 8
  br label %37

33:                                               ; preds = %_ZNK4cvc58internal9TrustNode9getProvenEv.exit
  %34 = icmp eq i32 %26, 1048574
  br i1 %34, label %35, label %37, !prof !10

35:                                               ; preds = %33
  %36 = or i64 %22, 1152920405095219200
  store i64 %36, ptr %7, align 8
  invoke void @_ZN4cvc58internal4expr9NodeValue20markRefCountMaxedOutEv(ptr noundef nonnull align 8 dereferenceable(24) %7)
          to label %._crit_edge unwind label %51

._crit_edge:                                      ; preds = %35
  %.pre4 = load i64, ptr %7, align 8
  br label %37

37:                                               ; preds = %._crit_edge, %33, %28
  %38 = phi i64 [ %.pre4, %._crit_edge ], [ %22, %33 ], [ %32, %28 ]
  %39 = getelementptr inbounds nuw i8, ptr %0, i64 16
  store ptr %2, ptr %39, align 8, !tbaa !30
  %40 = and i64 %38, 1152920405095219200
  %.not.i.i = icmp eq i64 %40, 1152920405095219200
  br i1 %.not.i.i, label %_ZN4cvc58internal12NodeTemplateILb1EED2Ev.exit, label %41, !prof !10

41:                                               ; preds = %37
  %42 = add i64 %38, 1152920405095219200
  %43 = and i64 %42, 1152920405095219200
  %44 = and i64 %38, -1152920405095219201
  %45 = or disjoint i64 %43, %44
  store i64 %45, ptr %7, align 8
  %46 = icmp eq i64 %43, 0
  br i1 %46, label %47, label %_ZN4cvc58internal12NodeTemplateILb1EED2Ev.exit, !prof !10

47:                                               ; preds = %41
  invoke void @_ZN4cvc58internal4expr9NodeValue15markForDeletionEv(ptr noundef nonnull align 8 dereferenceable(24) %7)
          to label %_ZN4cvc58internal12NodeTemplateILb1EED2Ev.exit unwind label %48

48:                                               ; preds = %47
  %49 = landingpad { ptr, i32 }
          catch ptr null
  %50 = extractvalue { ptr, i32 } %49, 0
  tail call void @__clang_call_terminate(ptr %50) #18
  unreachable

_ZN4cvc58internal12NodeTemplateILb1EED2Ev.exit:   ; preds = %37, %41, %47
  ret void

51:                                               ; preds = %35
  %52 = landingpad { ptr, i32 }
          cleanup
  call void @_ZN4cvc58internal12NodeTemplateILb1EED2Ev(ptr noundef nonnull align 8 dereferenceable(8) %4) #17
  resume { ptr, i32 } %52
}